target datalayout = "e-m:e-p270:32:32-p271:32:32-p272:64:64-i64:64-i128:128-f80:128-n8:16:32:64-S128"
target triple = "x86_64-pc-linux-gnu"

%struct.Gia_Man_t_ = type { ptr, ptr, i32, i32, i32, i32, ptr, ptr, i32, i32, i32, ptr, ptr, %struct.Vec_Int_t_, %struct.Vec_Int_t_, i32, i32, i32, %struct.Vec_Int_t_, ptr, ptr, ptr, i32, i32, i32, i32, ptr, ptr, ptr, ptr, ptr, i32, i32, ptr, i32, ptr, ptr, ptr, ptr, ptr, ptr, ptr, ptr, ptr, ptr, ptr, ptr, ptr, ptr, ptr, ptr, ptr, ptr, %struct.Vec_Int_t_, %struct.Vec_Int_t_, ptr, ptr, ptr, ptr, ptr, ptr, ptr, ptr, ptr, ptr, ptr, ptr, ptr, ptr, ptr, ptr, ptr, ptr, ptr, ptr, ptr, i32, float, float, ptr, ptr, i32, ptr, ptr, ptr, ptr, ptr, ptr, ptr, ptr, ptr, ptr, ptr, ptr, ptr, ptr, ptr, i64, i64, ptr, ptr, i32, i32, i32, i32, i32, i32, i32, i32, i32, i32, i32, i32, ptr, ptr, ptr, ptr, ptr, ptr, ptr, ptr, i32, i32, i32, ptr, i32, i32, ptr, ptr, ptr, ptr, ptr, ptr, i32, i32, ptr, %struct.Vec_Int_t_, %struct.Vec_Int_t_, %struct.Vec_Int_t_, ptr, ptr, ptr }
%struct.Vec_Int_t_ = type { i32, i32, ptr }
%struct.Gia_Obj_t_ = type <{ i64, i32 }>
%struct.Gia_Rpr_t_ = type { i32 }

@.str.30 = private unnamed_addr constant [52 x i8] c"Warning: AIG has repr data-strucure but not reprs.\0A\00", align 1
@.str.31 = private unnamed_addr constant [22 x i8] c"%d nodes have reprs.\0A\00", align 1
@.str.32 = private unnamed_addr constant [22 x i8] c"%d nodes have nexts.\0A\00", align 1
@.str.33 = private unnamed_addr constant [84 x i8] c"Gia_ManHasChoices_very_old(): Error: %d internal nodes have no fanout and no repr.\0A\00", align 1
@.str.34 = private unnamed_addr constant [83 x i8] c"Gia_ManHasChoices_very_old(): Error: %d internal nodes have both fanout and repr.\0A\00", align 1

; Function Attrs: nounwind uwtable
define internal i32 @Gia_ObjRefNumId(ptr noundef %0, i32 noundef %1) #0 {
  %3 = alloca ptr, align 8
  %4 = alloca i32, align 4
  store ptr %0, ptr %3, align 8
  store i32 %1, ptr %4, align 4
  %5 = load ptr, ptr %3, align 8
  %6 = getelementptr inbounds %struct.Gia_Man_t_, ptr %5, i32 0, i32 19
  %7 = load ptr, ptr %6, align 8
  %8 = load i32, ptr %4, align 4
  %9 = sext i32 %8 to i64
  %10 = getelementptr inbounds i32, ptr %7, i64 %9
  %11 = load i32, ptr %10, align 4
  ret i32 %11
}

; Function Attrs: nounwind uwtable
define internal ptr @Gia_ObjNextObj(ptr noundef %0, i32 noundef %1) #0 {
  %3 = alloca ptr, align 8
  %4 = alloca i32, align 4
  store ptr %0, ptr %3, align 8
  store i32 %1, ptr %4, align 4
  %5 = load ptr, ptr %3, align 8
  %6 = getelementptr inbounds %struct.Gia_Man_t_, ptr %5, i32 0, i32 28
  %7 = load ptr, ptr %6, align 8
  %8 = load i32, ptr %4, align 4
  %9 = sext i32 %8 to i64
  %10 = getelementptr inbounds i32, ptr %7, i64 %9
  %11 = load i32, ptr %10, align 4
  %12 = icmp eq i32 %11, 0
  br i1 %12, label %13, label %14

13:                                               ; preds = %2
  br label %24

14:                                               ; preds = %2
  %15 = load ptr, ptr %3, align 8
  %16 = load ptr, ptr %3, align 8
  %17 = getelementptr inbounds %struct.Gia_Man_t_, ptr %16, i32 0, i32 28
  %18 = load ptr, ptr %17, align 8
  %19 = load i32, ptr %4, align 4
  %20 = sext i32 %19 to i64
  %21 = getelementptr inbounds i32, ptr %18, i64 %20
  %22 = load i32, ptr %21, align 4
  %23 = call ptr @Gia_ManObj(ptr noundef %15, i32 noundef %22)
  br label %24

24:                                               ; preds = %14, %13
  %25 = phi ptr [ null, %13 ], [ %23, %14 ]
  ret ptr %25
}

; Function Attrs: nounwind uwtable
define internal i32 @Gia_ObjRefNum(ptr noundef %0, ptr noundef %1) #0 {
  %3 = alloca ptr, align 8
  %4 = alloca ptr, align 8
  store ptr %0, ptr %3, align 8
  store ptr %1, ptr %4, align 8
  %5 = load ptr, ptr %3, align 8
  %6 = load ptr, ptr %3, align 8
  %7 = load ptr, ptr %4, align 8
  %8 = call i32 @Gia_ObjId(ptr noundef %6, ptr noundef %7)
  %9 = call i32 @Gia_ObjRefNumId(ptr noundef %5, i32 noundef %8)
  ret i32 %9
}

; Function Attrs: nounwind uwtable
define internal i32 @Gia_ObjIsAnd(ptr noundef %0) #0 {
  %2 = alloca ptr, align 8
  store ptr %0, ptr %2, align 8
  %3 = load ptr, ptr %2, align 8
  %4 = load i64, ptr %3, align 4
  %5 = lshr i64 %4, 31
  %6 = and i64 %5, 1
  %7 = trunc i64 %6 to i32
  %8 = icmp ne i32 %7, 0
  br i1 %8, label %15, label %9

9:                                                ; preds = %1
  %10 = load ptr, ptr %2, align 8
  %11 = load i64, ptr %10, align 4
  %12 = and i64 %11, 536870911
  %13 = trunc i64 %12 to i32
  %14 = icmp ne i32 %13, 536870911
  br label %15

15:                                               ; preds = %9, %1
  %16 = phi i1 [ false, %1 ], [ %14, %9 ]
  %17 = zext i1 %16 to i32
  ret i32 %17
}

; Function Attrs: nounwind uwtable
define internal i32 @Gia_ObjNext(ptr noundef %0, i32 noundef %1) #0 {
  %3 = alloca ptr, align 8
  %4 = alloca i32, align 4
  store ptr %0, ptr %3, align 8
  store i32 %1, ptr %4, align 4
  %5 = load ptr, ptr %3, align 8
  %6 = getelementptr inbounds %struct.Gia_Man_t_, ptr %5, i32 0, i32 28
  %7 = load ptr, ptr %6, align 8
  %8 = load i32, ptr %4, align 4
  %9 = sext i32 %8 to i64
  %10 = getelementptr inbounds i32, ptr %7, i64 %9
  %11 = load i32, ptr %10, align 4
  ret i32 %11
}

; Function Attrs: nounwind uwtable
define internal ptr @Gia_ObjReprObj(ptr noundef %0, i32 noundef %1) #0 {
  %3 = alloca ptr, align 8
  %4 = alloca i32, align 4
  store ptr %0, ptr %3, align 8
  store i32 %1, ptr %4, align 4
  %5 = load ptr, ptr %3, align 8
  %6 = getelementptr inbounds %struct.Gia_Man_t_, ptr %5, i32 0, i32 27
  %7 = load ptr, ptr %6, align 8
  %8 = load i32, ptr %4, align 4
  %9 = sext i32 %8 to i64
  %10 = getelementptr inbounds %struct.Gia_Rpr_t_, ptr %7, i64 %9
  %11 = load i32, ptr %10, align 4
  %12 = and i32 %11, 268435455
  %13 = icmp eq i32 %12, 268435455
  br i1 %13, label %14, label %15

14:                                               ; preds = %2
  br label %26

15:                                               ; preds = %2
  %16 = load ptr, ptr %3, align 8
  %17 = load ptr, ptr %3, align 8
  %18 = getelementptr inbounds %struct.Gia_Man_t_, ptr %17, i32 0, i32 27
  %19 = load ptr, ptr %18, align 8
  %20 = load i32, ptr %4, align 4
  %21 = sext i32 %20 to i64
  %22 = getelementptr inbounds %struct.Gia_Rpr_t_, ptr %19, i64 %21
  %23 = load i32, ptr %22, align 4
  %24 = and i32 %23, 268435455
  %25 = call ptr @Gia_ManObj(ptr noundef %16, i32 noundef %24)
  br label %26

26:                                               ; preds = %15, %14
  %27 = phi ptr [ null, %14 ], [ %25, %15 ]
  ret ptr %27
}

; Function Attrs: nounwind uwtable
define internal i32 @Gia_ObjId(ptr noundef %0, ptr noundef %1) #0 {
  %3 = alloca ptr, align 8
  %4 = alloca ptr, align 8
  store ptr %0, ptr %3, align 8
  store ptr %1, ptr %4, align 8
  %5 = load ptr, ptr %4, align 8
  %6 = load ptr, ptr %3, align 8
  %7 = getelementptr inbounds %struct.Gia_Man_t_, ptr %6, i32 0, i32 6
  %8 = load ptr, ptr %7, align 8
  %9 = ptrtoint ptr %5 to i64
  %10 = ptrtoint ptr %8 to i64
  %11 = sub i64 %9, %10
  %12 = sdiv exact i64 %11, 12
  %13 = trunc i64 %12 to i32
  ret i32 %13
}

; Function Attrs: nounwind uwtable
define internal ptr @Gia_ManObj(ptr noundef %0, i32 noundef %1) #0 {
  %3 = alloca ptr, align 8
  %4 = alloca i32, align 4
  store ptr %0, ptr %3, align 8
  store i32 %1, ptr %4, align 4
  %5 = load ptr, ptr %3, align 8
  %6 = getelementptr inbounds %struct.Gia_Man_t_, ptr %5, i32 0, i32 6
  %7 = load ptr, ptr %6, align 8
  %8 = load i32, ptr %4, align 4
  %9 = sext i32 %8 to i64
  %10 = getelementptr inbounds %struct.Gia_Obj_t_, ptr %7, i64 %9
  ret ptr %10
}

; Function Attrs: nounwind uwtable
define i32 @Gia_ManHasChoices_very_old(ptr noundef %0) #0 {
  %2 = alloca i32, align 4
  %3 = alloca ptr, align 8
  %4 = alloca ptr, align 8
  %5 = alloca i32, align 4
  %6 = alloca i32, align 4
  %7 = alloca i32, align 4
  %8 = alloca i32, align 4
  %9 = alloca i32, align 4
  %10 = alloca i32, align 4
  %11 = alloca i32, align 4
  store ptr %0, ptr %3, align 8
  store i32 0, ptr %6, align 4
  store i32 0, ptr %7, align 4
  store i32 0, ptr %8, align 4
  store i32 0, ptr %9, align 4
  store i32 0, ptr %10, align 4
  store i32 0, ptr %11, align 4
  %12 = load ptr, ptr %3, align 8
  %13 = getelementptr inbounds %struct.Gia_Man_t_, ptr %12, i32 0, i32 27
  %14 = load ptr, ptr %13, align 8
  %15 = icmp eq ptr %14, null
  br i1 %15, label %21, label %16

16:                                               ; preds = %1
  %17 = load ptr, ptr %3, align 8
  %18 = getelementptr inbounds %struct.Gia_Man_t_, ptr %17, i32 0, i32 28
  %19 = load ptr, ptr %18, align 8
  %20 = icmp eq ptr %19, null
  br i1 %20, label %21, label %22

21:                                               ; preds = %16, %1
  store i32 0, ptr %2, align 4
  br label %187

22:                                               ; preds = %16
  store i32 0, ptr %5, align 4
  br label %23

23:                                               ; preds = %47, %22
  %24 = load i32, ptr %5, align 4
  %25 = load ptr, ptr %3, align 8
  %26 = getelementptr inbounds %struct.Gia_Man_t_, ptr %25, i32 0, i32 4
  %27 = load i32, ptr %26, align 8
  %28 = icmp slt i32 %24, %27
  br i1 %28, label %29, label %34

29:                                               ; preds = %23
  %30 = load ptr, ptr %3, align 8
  %31 = load i32, ptr %5, align 4
  %32 = call ptr @Gia_ManObj(ptr noundef %30, i32 noundef %31)
  store ptr %32, ptr %4, align 8
  %33 = icmp ne ptr %32, null
  br label %34

34:                                               ; preds = %29, %23
  %35 = phi i1 [ false, %23 ], [ %33, %29 ]
  br i1 %35, label %36, label %50

36:                                               ; preds = %34
  %37 = load ptr, ptr %3, align 8
  %38 = load ptr, ptr %3, align 8
  %39 = load ptr, ptr %4, align 8
  %40 = call i32 @Gia_ObjId(ptr noundef %38, ptr noundef %39)
  %41 = call ptr @Gia_ObjReprObj(ptr noundef %37, i32 noundef %40)
  %42 = icmp ne ptr %41, null
  br i1 %42, label %43, label %46

43:                                               ; preds = %36
  %44 = load i32, ptr %6, align 4
  %45 = add nsw i32 %44, 1
  store i32 %45, ptr %6, align 4
  br label %46

46:                                               ; preds = %43, %36
  br label %47

47:                                               ; preds = %46
  %48 = load i32, ptr %5, align 4
  %49 = add nsw i32 %48, 1
  store i32 %49, ptr %5, align 4
  br label %23, !llvm.loop !71

50:                                               ; preds = %34
  store i32 0, ptr %5, align 4
  br label %51

51:                                               ; preds = %75, %50
  %52 = load i32, ptr %5, align 4
  %53 = load ptr, ptr %3, align 8
  %54 = getelementptr inbounds %struct.Gia_Man_t_, ptr %53, i32 0, i32 4
  %55 = load i32, ptr %54, align 8
  %56 = icmp slt i32 %52, %55
  br i1 %56, label %57, label %62

57:                                               ; preds = %51
  %58 = load ptr, ptr %3, align 8
  %59 = load i32, ptr %5, align 4
  %60 = call ptr @Gia_ManObj(ptr noundef %58, i32 noundef %59)
  store ptr %60, ptr %4, align 8
  %61 = icmp ne ptr %60, null
  br label %62

62:                                               ; preds = %57, %51
  %63 = phi i1 [ false, %51 ], [ %61, %57 ]
  br i1 %63, label %64, label %78

64:                                               ; preds = %62
  %65 = load ptr, ptr %3, align 8
  %66 = load ptr, ptr %3, align 8
  %67 = load ptr, ptr %4, align 8
  %68 = call i32 @Gia_ObjId(ptr noundef %66, ptr noundef %67)
  %69 = call i32 @Gia_ObjNext(ptr noundef %65, i32 noundef %68)
  %70 = icmp ne i32 %69, 0
  br i1 %70, label %71, label %74

71:                                               ; preds = %64
  %72 = load i32, ptr %7, align 4
  %73 = add nsw i32 %72, 1
  store i32 %73, ptr %7, align 4
  br label %74

74:                                               ; preds = %71, %64
  br label %75

75:                                               ; preds = %74
  %76 = load i32, ptr %5, align 4
  %77 = add nsw i32 %76, 1
  store i32 %77, ptr %5, align 4
  br label %51, !llvm.loop !72

78:                                               ; preds = %62
  %79 = load i32, ptr %6, align 4
  %80 = icmp eq i32 %79, 0
  br i1 %80, label %81, label %83

81:                                               ; preds = %78
  %82 = call i32 (ptr, ...) @printf(ptr noundef @.str.30)
  store i32 0, ptr %2, align 4
  br label %187

83:                                               ; preds = %78
  %84 = load i32, ptr %6, align 4
  %85 = call i32 (ptr, ...) @printf(ptr noundef @.str.31, i32 noundef %84)
  %86 = load i32, ptr %7, align 4
  %87 = call i32 (ptr, ...) @printf(ptr noundef @.str.32, i32 noundef %86)
  %88 = load ptr, ptr %3, align 8
  %89 = getelementptr inbounds %struct.Gia_Man_t_, ptr %88, i32 0, i32 19
  %90 = load ptr, ptr %89, align 8
  %91 = icmp ne ptr %90, null
  br i1 %91, label %92, label %98

92:                                               ; preds = %83
  %93 = load ptr, ptr %3, align 8
  %94 = getelementptr inbounds %struct.Gia_Man_t_, ptr %93, i32 0, i32 19
  %95 = load ptr, ptr %94, align 8
  call void @free(ptr noundef %95) #11
  %96 = load ptr, ptr %3, align 8
  %97 = getelementptr inbounds %struct.Gia_Man_t_, ptr %96, i32 0, i32 19
  store ptr null, ptr %97, align 8
  br label %99

98:                                               ; preds = %83
  br label %99

99:                                               ; preds = %98, %92
  %100 = load ptr, ptr %3, align 8
  call void @Gia_ManCreateRefs(ptr noundef %100)
  store i32 0, ptr %5, align 4
  br label %101

101:                                              ; preds = %167, %99
  %102 = load i32, ptr %5, align 4
  %103 = load ptr, ptr %3, align 8
  %104 = getelementptr inbounds %struct.Gia_Man_t_, ptr %103, i32 0, i32 4
  %105 = load i32, ptr %104, align 8
  %106 = icmp slt i32 %102, %105
  br i1 %106, label %107, label %112

107:                                              ; preds = %101
  %108 = load ptr, ptr %3, align 8
  %109 = load i32, ptr %5, align 4
  %110 = call ptr @Gia_ManObj(ptr noundef %108, i32 noundef %109)
  store ptr %110, ptr %4, align 8
  %111 = icmp ne ptr %110, null
  br label %112

112:                                              ; preds = %107, %101
  %113 = phi i1 [ false, %101 ], [ %111, %107 ]
  br i1 %113, label %114, label %170

114:                                              ; preds = %112
  %115 = load ptr, ptr %4, align 8
  %116 = call i32 @Gia_ObjIsAnd(ptr noundef %115)
  %117 = icmp ne i32 %116, 0
  br i1 %117, label %119, label %118

118:                                              ; preds = %114
  br label %166

119:                                              ; preds = %114
  %120 = load ptr, ptr %3, align 8
  %121 = load ptr, ptr %4, align 8
  %122 = call i32 @Gia_ObjRefNum(ptr noundef %120, ptr noundef %121)
  %123 = icmp eq i32 %122, 0
  br i1 %123, label %124, label %138

124:                                              ; preds = %119
  %125 = load ptr, ptr %3, align 8
  %126 = load ptr, ptr %3, align 8
  %127 = load ptr, ptr %4, align 8
  %128 = call i32 @Gia_ObjId(ptr noundef %126, ptr noundef %127)
  %129 = call ptr @Gia_ObjReprObj(ptr noundef %125, i32 noundef %128)
  %130 = icmp eq ptr %129, null
  br i1 %130, label %131, label %134

131:                                              ; preds = %124
  %132 = load i32, ptr %8, align 4
  %133 = add nsw i32 %132, 1
  store i32 %133, ptr %8, align 4
  br label %137

134:                                              ; preds = %124
  %135 = load i32, ptr %11, align 4
  %136 = add nsw i32 %135, 1
  store i32 %136, ptr %11, align 4
  br label %137

137:                                              ; preds = %134, %131
  br label %159

138:                                              ; preds = %119
  %139 = load ptr, ptr %3, align 8
  %140 = load ptr, ptr %3, align 8
  %141 = load ptr, ptr %4, align 8
  %142 = call i32 @Gia_ObjId(ptr noundef %140, ptr noundef %141)
  %143 = call ptr @Gia_ObjReprObj(ptr noundef %139, i32 noundef %142)
  %144 = icmp ne ptr %143, null
  br i1 %144, label %145, label %148

145:                                              ; preds = %138
  %146 = load i32, ptr %9, align 4
  %147 = add nsw i32 %146, 1
  store i32 %147, ptr %9, align 4
  br label %148

148:                                              ; preds = %145, %138
  %149 = load ptr, ptr %3, align 8
  %150 = load ptr, ptr %3, align 8
  %151 = load ptr, ptr %4, align 8
  %152 = call i32 @Gia_ObjId(ptr noundef %150, ptr noundef %151)
  %153 = call ptr @Gia_ObjNextObj(ptr noundef %149, i32 noundef %152)
  %154 = icmp ne ptr %153, null
  br i1 %154, label %155, label %158

155:                                              ; preds = %148
  %156 = load i32, ptr %10, align 4
  %157 = add nsw i32 %156, 1
  store i32 %157, ptr %10, align 4
  br label %158

158:                                              ; preds = %155, %148
  br label %159

159:                                              ; preds = %158, %137
  %160 = load ptr, ptr %3, align 8
  %161 = load i32, ptr %5, align 4
  %162 = call ptr @Gia_ObjReprObj(ptr noundef %160, i32 noundef %161)
  %163 = icmp ne ptr %162, null
  br i1 %163, label %164, label %165

164:                                              ; preds = %159
  br label %165

165:                                              ; preds = %164, %159
  br label %166

166:                                              ; preds = %165, %118
  br label %167

167:                                              ; preds = %166
  %168 = load i32, ptr %5, align 4
  %169 = add nsw i32 %168, 1
  store i32 %169, ptr %5, align 4
  br label %101, !llvm.loop !73

170:                                              ; preds = %112
  %171 = load i32, ptr %11, align 4
  %172 = icmp eq i32 %171, 0
  br i1 %172, label %173, label %174

173:                                              ; preds = %170
  store i32 0, ptr %2, align 4
  br label %187

174:                                              ; preds = %170
  %175 = load i32, ptr %8, align 4
  %176 = icmp ne i32 %175, 0
  br i1 %176, label %177, label %180

177:                                              ; preds = %174
  %178 = load i32, ptr %8, align 4
  %179 = call i32 (ptr, ...) @printf(ptr noundef @.str.33, i32 noundef %178)
  br label %180

180:                                              ; preds = %177, %174
  %181 = load i32, ptr %9, align 4
  %182 = icmp ne i32 %181, 0
  br i1 %182, label %183, label %186

183:                                              ; preds = %180
  %184 = load i32, ptr %9, align 4
  %185 = call i32 (ptr, ...) @printf(ptr noundef @.str.34, i32 noundef %184)
  br label %186

186:                                              ; preds = %183, %180
  store i32 1, ptr %2, align 4
  br label %187

187:                                              ; preds = %186, %173, %81, %21
  %188 = load i32, ptr %2, align 4
  ret i32 %188
}