; Function Attrs: nounwind uwtable
define range(i32 0, 2) i32 @Gia_ManHasChoices_very_old(ptr noundef captures(none) %0) local_unnamed_addr #2 {
  %2 = getelementptr inbounds nuw i8, ptr %0, i64 192
  %3 = load ptr, ptr %2, align 8
  %4 = icmp eq ptr %3, null
  br i1 %4, label %.critedge4.thread, label %5

5:                                                ; preds = %1
  %6 = getelementptr inbounds nuw i8, ptr %0, i64 200
  %7 = load ptr, ptr %6, align 8
  %8 = icmp eq ptr %7, null
  br i1 %8, label %.critedge4.thread, label %.preheader

.preheader:                                       ; preds = %5
  %9 = getelementptr inbounds nuw i8, ptr %0, i64 24
  %10 = load i32, ptr %9, align 8
  %11 = icmp sgt i32 %10, 0
  br i1 %11, label %.lr.ph, label %.critedge2.thread

.lr.ph:                                           ; preds = %.preheader
  %12 = getelementptr i8, ptr %0, i64 32
  %.val94 = load ptr, ptr %12, align 8
  %.not = icmp eq ptr %.val94, null
  br i1 %.not, label %.lr.ph124, label %Gia_ObjReprObj.exit.preheader

Gia_ObjReprObj.exit.preheader:                    ; preds = %.lr.ph
  %wide.trip.count = zext nneg i32 %10 to i64
  br label %Gia_ObjReprObj.exit

Gia_ObjReprObj.exit:                              ; preds = %Gia_ObjReprObj.exit.preheader, %Gia_ObjReprObj.exit
  %indvars.iv = phi i64 [ 0, %Gia_ObjReprObj.exit.preheader ], [ %indvars.iv.next, %Gia_ObjReprObj.exit ]
  %.070116 = phi i32 [ 0, %Gia_ObjReprObj.exit.preheader ], [ %spec.select, %Gia_ObjReprObj.exit ]
  %13 = getelementptr inbounds nuw %struct.Gia_Rpr_t_, ptr %3, i64 %indvars.iv
  %14 = load i32, ptr %13, align 4
  %15 = and i32 %14, 268435455
  %16 = icmp ne i32 %15, 268435455
  %17 = zext i1 %16 to i32
  %spec.select = add nuw nsw i32 %.070116, %17
  %indvars.iv.next = add nuw nsw i64 %indvars.iv, 1
  %exitcond.not = icmp eq i64 %indvars.iv.next, %wide.trip.count
  br i1 %exitcond.not, label %.lr.ph124, label %Gia_ObjReprObj.exit, !llvm.loop !69

.lr.ph124:                                        ; preds = %Gia_ObjReprObj.exit, %.lr.ph
  %.070.lcssa156 = phi i32 [ 0, %.lr.ph ], [ %spec.select, %Gia_ObjReprObj.exit ]
  %18 = getelementptr i8, ptr %0, i64 32
  %.val93 = load ptr, ptr %18, align 8
  %.not80 = icmp eq ptr %.val93, null
  br i1 %.not80, label %.critedge2, label %.lr.ph124.split.preheader

.lr.ph124.split.preheader:                        ; preds = %.lr.ph124
  %wide.trip.count147 = zext nneg i32 %10 to i64
  br label %.lr.ph124.split

.lr.ph124.split:                                  ; preds = %.lr.ph124.split.preheader, %.lr.ph124.split
  %indvars.iv144 = phi i64 [ 0, %.lr.ph124.split.preheader ], [ %indvars.iv.next145, %.lr.ph124.split ]
  %.068123 = phi i32 [ 0, %.lr.ph124.split.preheader ], [ %spec.select90, %.lr.ph124.split ]
  %19 = getelementptr inbounds nuw i32, ptr %7, i64 %indvars.iv144
  %20 = load i32, ptr %19, align 4
  %.not88 = icmp ne i32 %20, 0
  %21 = zext i1 %.not88 to i32
  %spec.select90 = add nuw nsw i32 %.068123, %21
  %indvars.iv.next145 = add nuw nsw i64 %indvars.iv144, 1
  %exitcond148.not = icmp eq i64 %indvars.iv.next145, %wide.trip.count147
  br i1 %exitcond148.not, label %.critedge2, label %.lr.ph124.split, !llvm.loop !70

.critedge2:                                       ; preds = %.lr.ph124.split, %.lr.ph124
  %.068.lcssa = phi i32 [ 0, %.lr.ph124 ], [ %spec.select90, %.lr.ph124.split ]
  %22 = icmp eq i32 %.070.lcssa156, 0
  br i1 %22, label %.critedge2.thread, label %23

.critedge2.thread:                                ; preds = %.preheader, %.critedge2
  %puts = tail call i32 @puts(ptr nonnull dereferenceable(1) @str.1)
  br label %.critedge4.thread

23:                                               ; preds = %.critedge2
  %24 = tail call i32 (ptr, ...) @printf(ptr noundef nonnull dereferenceable(1) @.str.31, i32 noundef %.070.lcssa156)
  %25 = tail call i32 (ptr, ...) @printf(ptr noundef nonnull dereferenceable(1) @.str.32, i32 noundef %.068.lcssa)
  %26 = getelementptr inbounds nuw i8, ptr %0, i64 144
  %27 = load ptr, ptr %26, align 8
  %.not81 = icmp eq ptr %27, null
  br i1 %.not81, label %29, label %28

28:                                               ; preds = %23
  tail call void @free(ptr noundef nonnull %27) #36
  store ptr null, ptr %26, align 8
  br label %29

29:                                               ; preds = %23, %28
  tail call void @Gia_ManCreateRefs(ptr noundef nonnull %0)
  %30 = load i32, ptr %9, align 8
  %31 = icmp sgt i32 %30, 0
  br i1 %31, label %.lr.ph133, label %.critedge4.thread

.lr.ph133:                                        ; preds = %29
  %32 = getelementptr i8, ptr %0, i64 32
  %.val = load ptr, ptr %32, align 8
  %.not82 = icmp eq ptr %.val, null
  br i1 %.not82, label %.critedge4.thread, label %.lr.ph133.split.preheader

.lr.ph133.split.preheader:                        ; preds = %.lr.ph133
  %wide.trip.count152 = zext nneg i32 %30 to i64
  br label %.lr.ph133.split

.lr.ph133.split:                                  ; preds = %.lr.ph133.split.preheader, %Gia_ObjReprObj.exit110
  %indvars.iv149 = phi i64 [ 0, %.lr.ph133.split.preheader ], [ %indvars.iv.next150, %Gia_ObjReprObj.exit110 ]
  %.0132 = phi i32 [ 0, %.lr.ph133.split.preheader ], [ %.2, %Gia_ObjReprObj.exit110 ]
  %.062130 = phi i32 [ 0, %.lr.ph133.split.preheader ], [ %.3, %Gia_ObjReprObj.exit110 ]
  %.065129 = phi i32 [ 0, %.lr.ph133.split.preheader ], [ %.267, %Gia_ObjReprObj.exit110 ]
  %33 = getelementptr inbounds nuw %struct.Gia_Obj_t_, ptr %.val, i64 %indvars.iv149
  %.val95 = load i64, ptr %33, align 4
  %34 = and i64 %.val95, 2147483648
  %.not.i = icmp ne i64 %34, 0
  %35 = and i64 %.val95, 536870911
  %36 = icmp eq i64 %35, 536870911
  %narrow.i.not = or i1 %.not.i, %36
  br i1 %narrow.i.not, label %Gia_ObjReprObj.exit110, label %37

37:                                               ; preds = %.lr.ph133.split
  %.val102 = load ptr, ptr %26, align 8
  %sext.i = shl nuw nsw i64 %indvars.iv149, 2
  %38 = getelementptr inbounds nuw i8, ptr %.val102, i64 %sext.i
  %39 = load i32, ptr %38, align 4
  %40 = icmp eq i32 %39, 0
  %41 = load ptr, ptr %2, align 8
  %42 = getelementptr inbounds nuw %struct.Gia_Rpr_t_, ptr %41, i64 %indvars.iv149
  %43 = load i32, ptr %42, align 4
  %44 = and i32 %43, 268435455
  br i1 %40, label %45, label %Gia_ObjReprObj.exit107

45:                                               ; preds = %37
  %46 = icmp eq i32 %44, 268435455
  br i1 %46, label %Gia_ObjReprObj.exit105.thread, label %48

Gia_ObjReprObj.exit105.thread:                    ; preds = %45
  %47 = add nsw i32 %.065129, 1
  br label %Gia_ObjReprObj.exit110

48:                                               ; preds = %45
  %49 = add nsw i32 %.0132, 1
  br label %Gia_ObjReprObj.exit110

Gia_ObjReprObj.exit107:                           ; preds = %37
  %50 = icmp ne i32 %44, 268435455
  %51 = zext i1 %50 to i32
  %spec.select91 = add nsw i32 %.062130, %51
  br label %Gia_ObjReprObj.exit110

Gia_ObjReprObj.exit110:                           ; preds = %48, %Gia_ObjReprObj.exit105.thread, %Gia_ObjReprObj.exit107, %.lr.ph133.split
  %.267 = phi i32 [ %.065129, %.lr.ph133.split ], [ %47, %Gia_ObjReprObj.exit105.thread ], [ %.065129, %48 ], [ %.065129, %Gia_ObjReprObj.exit107 ]
  %.3 = phi i32 [ %.062130, %.lr.ph133.split ], [ %.062130, %Gia_ObjReprObj.exit105.thread ], [ %.062130, %48 ], [ %spec.select91, %Gia_ObjReprObj.exit107 ]
  %.2 = phi i32 [ %.0132, %.lr.ph133.split ], [ %.0132, %Gia_ObjReprObj.exit105.thread ], [ %49, %48 ], [ %.0132, %Gia_ObjReprObj.exit107 ]
  %indvars.iv.next150 = add nuw nsw i64 %indvars.iv149, 1
  %exitcond153.not = icmp eq i64 %indvars.iv.next150, %wide.trip.count152
  br i1 %exitcond153.not, label %.critedge4, label %.lr.ph133.split, !llvm.loop !71

.critedge4:                                       ; preds = %Gia_ObjReprObj.exit110
  %52 = icmp eq i32 %.2, 0
  br i1 %52, label %.critedge4.thread, label %53

53:                                               ; preds = %.critedge4
  %.not83 = icmp eq i32 %.267, 0
  br i1 %.not83, label %56, label %54

54:                                               ; preds = %53
  %55 = tail call i32 (ptr, ...) @printf(ptr noundef nonnull dereferenceable(1) @.str.33, i32 noundef %.267)
  br label %56

56:                                               ; preds = %54, %53
  %.not84 = icmp eq i32 %.3, 0
  br i1 %.not84, label %.critedge4.thread, label %57

57:                                               ; preds = %56
  %58 = tail call i32 (ptr, ...) @printf(ptr noundef nonnull dereferenceable(1) @.str.34, i32 noundef %.3)
  br label %.critedge4.thread

.critedge4.thread:                                ; preds = %.lr.ph133, %29, %56, %57, %.critedge4, %1, %5, %.critedge2.thread
  %.075 = phi i32 [ 0, %.critedge2.thread ], [ 0, %5 ], [ 0, %1 ], [ 0, %.critedge4 ], [ 1, %57 ], [ 1, %56 ], [ 0, %29 ], [ 0, %.lr.ph133 ]
  ret i32 %.075
}